target datalayout = "e-m:e-p270:32:32-p271:32:32-p272:64:64-i64:64-i128:128-f80:128-n8:16:32:64-S128"
target triple = "x86_64-pc-linux-gnu"

%"class.net::HpackEncoder" = type <{ %"class.net::HpackHeaderTable", %"class.net::HpackOutputStream", ptr, i64, %"class.std::function", i8, i8, [6 x i8] }>
%"class.net::HpackHeaderTable" = type { ptr, %"class.std::deque", ptr, ptr, %"class.std::unordered_set", %"class.std::unordered_map", i64, i64, i64, i64, %"class.std::unique_ptr" }
%"class.std::deque" = type { %"class.std::_Deque_base" }
%"class.std::_Deque_base" = type { %"struct.std::_Deque_base<net::HpackEntry, std::allocator<net::HpackEntry>>::_Deque_impl" }
%"struct.std::_Deque_base<net::HpackEntry, std::allocator<net::HpackEntry>>::_Deque_impl" = type { %"struct.std::_Deque_base<net::HpackEntry, std::allocator<net::HpackEntry>>::_Deque_impl_data" }
%"struct.std::_Deque_base<net::HpackEntry, std::allocator<net::HpackEntry>>::_Deque_impl_data" = type { ptr, i64, %"struct.std::_Deque_iterator", %"struct.std::_Deque_iterator" }
%"struct.std::_Deque_iterator" = type { ptr, ptr, ptr, ptr }
%"class.std::unordered_set" = type { %"class.std::_Hashtable" }
%"class.std::_Hashtable" = type { ptr, i64, %"struct.std::__detail::_Hash_node_base", i64, %"struct.std::__detail::_Prime_rehash_policy", ptr }
%"struct.std::__detail::_Hash_node_base" = type { ptr }
%"struct.std::__detail::_Prime_rehash_policy" = type { float, i64 }
%"class.std::unordered_map" = type { %"class.std::_Hashtable.5" }
%"class.std::_Hashtable.5" = type { ptr, i64, %"struct.std::__detail::_Hash_node_base", i64, %"struct.std::__detail::_Prime_rehash_policy", ptr }
%"class.std::unique_ptr" = type { %"struct.std::__uniq_ptr_data" }
%"struct.std::__uniq_ptr_data" = type { %"class.std::__uniq_ptr_impl" }
%"class.std::__uniq_ptr_impl" = type { %"class.std::tuple" }
%"class.std::tuple" = type { %"struct.std::_Tuple_impl" }
%"struct.std::_Tuple_impl" = type { %"struct.std::_Head_base.21" }
%"struct.std::_Head_base.21" = type { ptr }
%"class.net::HpackOutputStream" = type { %"class.std::__cxx11::basic_string", i64 }
%"class.std::__cxx11::basic_string" = type { %"struct.std::__cxx11::basic_string<char>::_Alloc_hider", i64, %union.anon }
%"struct.std::__cxx11::basic_string<char>::_Alloc_hider" = type { ptr }
%union.anon = type { i64, [8 x i8] }
%"class.std::function" = type { %"class.std::_Function_base", ptr }
%"class.std::_Function_base" = type { %"union.std::_Any_data", ptr }
%"union.std::_Any_data" = type { %"union.std::_Nocopy_types" }
%"union.std::_Nocopy_types" = type { { i64, i64 } }

; Function Attrs: inlinehint mustprogress nounwind uwtable
define linkonce_odr noundef nonnull align 8 dereferenceable(8) ptr @_ZSt3minImERKT_S2_S2_(ptr noundef nonnull align 8 dereferenceable(8) %0, ptr noundef nonnull align 8 dereferenceable(8) %1) #5 comdat {
  %3 = alloca ptr, align 8
  %4 = alloca ptr, align 8
  %5 = alloca ptr, align 8
  store ptr %0, ptr %4, align 8, !tbaa !97
  store ptr %1, ptr %5, align 8, !tbaa !97
  %6 = load ptr, ptr %5, align 8, !tbaa !97
  %7 = load i64, ptr %6, align 8, !tbaa !64
  %8 = load ptr, ptr %4, align 8, !tbaa !97
  %9 = load i64, ptr %8, align 8, !tbaa !64
  %10 = icmp ult i64 %7, %9
  br i1 %10, label %11, label %13

11:                                               ; preds = %2
  %12 = load ptr, ptr %5, align 8, !tbaa !97
  store ptr %12, ptr %3, align 8
  br label %15

13:                                               ; preds = %2
  %14 = load ptr, ptr %4, align 8, !tbaa !97
  store ptr %14, ptr %3, align 8
  br label %15

15:                                               ; preds = %13, %11
  %16 = load ptr, ptr %3, align 8
  ret ptr %16
}

; Function Attrs: mustprogress nounwind uwtable
define linkonce_odr noundef i64 @_ZNK3net16HpackHeaderTable19settings_size_boundEv(ptr noundef nonnull align 8 dereferenceable(256) %0) #2 comdat align 2 {
  %2 = alloca ptr, align 8
  store ptr %0, ptr %2, align 8, !tbaa !94
  %3 = load ptr, ptr %2, align 8
  %4 = getelementptr inbounds nuw %"class.net::HpackHeaderTable", ptr %3, i32 0, i32 6
  %5 = load i64, ptr %4, align 8, !tbaa !96
  ret i64 %5
}

; Function Attrs: mustprogress uwtable
define void @_ZN3net12HpackEncoder27ApplyHeaderTableSizeSettingEm(ptr noundef nonnull align 8 dereferenceable(346) %0, i64 noundef %1) #0 align 2 {
  %3 = alloca ptr, align 8
  %4 = alloca i64, align 8
  store ptr %0, ptr %3, align 8, !tbaa !3
  store i64 %1, ptr %4, align 8, !tbaa !64
  %5 = load ptr, ptr %3, align 8
  %6 = load i64, ptr %4, align 8, !tbaa !64
  %7 = getelementptr inbounds nuw %"class.net::HpackEncoder", ptr %5, i32 0, i32 0
  %8 = call noundef i64 @_ZNK3net16HpackHeaderTable19settings_size_boundEv(ptr noundef nonnull align 8 dereferenceable(256) %7)
  %9 = icmp eq i64 %6, %8
  br i1 %9, label %10, label %11

10:                                               ; preds = %2
  br label %25

11:                                               ; preds = %2
  %12 = load i64, ptr %4, align 8, !tbaa !64
  %13 = getelementptr inbounds nuw %"class.net::HpackEncoder", ptr %5, i32 0, i32 0
  %14 = call noundef i64 @_ZNK3net16HpackHeaderTable19settings_size_boundEv(ptr noundef nonnull align 8 dereferenceable(256) %13)
  %15 = icmp ult i64 %12, %14
  br i1 %15, label %16, label %21

16:                                               ; preds = %11
  %17 = getelementptr inbounds nuw %"class.net::HpackEncoder", ptr %5, i32 0, i32 3
  %18 = call noundef nonnull align 8 dereferenceable(8) ptr @_ZSt3minImERKT_S2_S2_(ptr noundef nonnull align 8 dereferenceable(8) %4, ptr noundef nonnull align 8 dereferenceable(8) %17)
  %19 = load i64, ptr %18, align 8, !tbaa !64
  %20 = getelementptr inbounds nuw %"class.net::HpackEncoder", ptr %5, i32 0, i32 3
  store i64 %19, ptr %20, align 8, !tbaa !10
  br label %21

21:                                               ; preds = %16, %11
  %22 = getelementptr inbounds nuw %"class.net::HpackEncoder", ptr %5, i32 0, i32 0
  %23 = load i64, ptr %4, align 8, !tbaa !64
  call void @_ZN3net16HpackHeaderTable26SetSettingsHeaderTableSizeEm(ptr noundef nonnull align 8 dereferenceable(256) %22, i64 noundef %23)
  %24 = getelementptr inbounds nuw %"class.net::HpackEncoder", ptr %5, i32 0, i32 6
  store i8 1, ptr %24, align 1, !tbaa !48
  br label %25

25:                                               ; preds = %21, %10
  ret void
}