; Function Attrs: mustprogress uwtable
define void @_ZN3net12HpackEncoder27ApplyHeaderTableSizeSettingEm(ptr noundef nonnull align 8 dereferenceable(346) %0, i64 noundef %1) local_unnamed_addr #0 align 2 {
  %3 = getelementptr inbounds nuw i8, ptr %0, i64 216
  %4 = load i64, ptr %3, align 8, !tbaa !58
  %5 = icmp eq i64 %1, %4
  br i1 %5, label %13, label %6

6:                                                ; preds = %2
  %7 = icmp ult i64 %1, %4
  br i1 %7, label %8, label %11

8:                                                ; preds = %6
  %9 = getelementptr inbounds nuw i8, ptr %0, i64 304
  %10 = load i64, ptr %9, align 8, !tbaa !73
  %.sroa.speculated = tail call i64 @llvm.umin.i64(i64 %10, i64 %1)
  store i64 %.sroa.speculated, ptr %9, align 8, !tbaa !8
  br label %11

11:                                               ; preds = %8, %6
  tail call void @_ZN3net16HpackHeaderTable26SetSettingsHeaderTableSizeEm(ptr noundef nonnull align 8 dereferenceable(256) %0, i64 noundef %1)
  %12 = getelementptr inbounds nuw i8, ptr %0, i64 345
  store i8 1, ptr %12, align 1, !tbaa !49
  br label %13

13:                                               ; preds = %2, %11
  ret void
}